; Function Attrs: mustprogress uwtable
define hidden void @_ZN3opt15model_based_opt9eliminateEjRNS0_3defE(ptr noundef nonnull readonly align 8 captures(none) dereferenceable(112) %0, i32 noundef %1, ptr noundef nonnull align 4 dereferenceable(8) %2) local_unnamed_addr #3 align 2 {
  %4 = getelementptr inbounds nuw i8, ptr %0, i64 104
  %5 = load ptr, ptr %4, align 8, !tbaa !61
  %6 = icmp eq ptr %5, null
  br i1 %6, label %._crit_edge, label %_ZN6vectorIN3opt15model_based_opt7def_refELb1EjE3endEv.exit

_ZN6vectorIN3opt15model_based_opt7def_refELb1EjE3endEv.exit: ; preds = %3
  %7 = getelementptr inbounds i8, ptr %5, i64 -4
  %8 = load i32, ptr %7, align 4, !tbaa !19
  %9 = zext i32 %8 to i64
  %10 = getelementptr inbounds nuw %"class.opt::model_based_opt::def_ref", ptr %5, i64 %9
  %.not12 = icmp eq i32 %8, 0
  br i1 %.not12, label %._crit_edge, label %.lr.ph

._crit_edge:                                      ; preds = %26, %3, %_ZN6vectorIN3opt15model_based_opt7def_refELb1EjE3endEv.exit
  ret void

.lr.ph:                                           ; preds = %_ZN6vectorIN3opt15model_based_opt7def_refELb1EjE3endEv.exit, %26
  %.013 = phi ptr [ %27, %26 ], [ %5, %_ZN6vectorIN3opt15model_based_opt7def_refELb1EjE3endEv.exit ]
  %11 = load ptr, ptr %.013, align 8, !tbaa !64
  %.not11 = icmp eq ptr %11, null
  br i1 %.not11, label %26, label %12

12:                                               ; preds = %.lr.ph
  %13 = tail call noundef ptr @_ZN3opt15model_based_opt3def10substituteEjRS1_(ptr noundef nonnull align 4 dereferenceable(8) %11, i32 noundef %1, ptr noundef nonnull align 4 dereferenceable(8) %2)
  %.not.i = icmp eq ptr %13, null
  br i1 %.not.i, label %18, label %14

14:                                               ; preds = %12
  %15 = getelementptr inbounds nuw i8, ptr %13, i64 4
  %16 = load i32, ptr %15, align 4, !tbaa !38
  %17 = add i32 %16, 1
  store i32 %17, ptr %15, align 4, !tbaa !38
  br label %18

18:                                               ; preds = %14, %12
  %19 = load ptr, ptr %.013, align 8, !tbaa !64
  %.not5.i = icmp eq ptr %19, null
  br i1 %.not5.i, label %_ZN3opt15model_based_opt7def_refaSEPNS0_3defE.exit, label %20

20:                                               ; preds = %18
  %21 = getelementptr inbounds nuw i8, ptr %19, i64 4
  %22 = load i32, ptr %21, align 4, !tbaa !38
  %23 = add i32 %22, 1
  store i32 %23, ptr %21, align 4, !tbaa !38
  %24 = icmp eq i32 %23, 0
  br i1 %24, label %25, label %_ZN3opt15model_based_opt7def_refaSEPNS0_3defE.exit

25:                                               ; preds = %20
  tail call void @_ZN6memory10deallocateEPv(ptr noundef nonnull align 4 dereferenceable(8) %19)
  br label %_ZN3opt15model_based_opt7def_refaSEPNS0_3defE.exit

_ZN3opt15model_based_opt7def_refaSEPNS0_3defE.exit: ; preds = %18, %20, %25
  store ptr %13, ptr %.013, align 8, !tbaa !64
  br label %26

26:                                               ; preds = %_ZN3opt15model_based_opt7def_refaSEPNS0_3defE.exit, %.lr.ph
  %27 = getelementptr inbounds nuw i8, ptr %.013, i64 8
  %.not = icmp eq ptr %27, %10
  br i1 %.not, label %._crit_edge, label %.lr.ph
}